target datalayout = "e-m:e-p270:32:32-p271:32:32-p272:64:64-i64:64-i128:128-f80:128-n8:16:32:64-S128"
target triple = "x86_64-pc-linux-gnu"

%struct._object = type { %union.anon.41, ptr }
%union.anon.41 = type { i64 }
%struct.PyASCIIObject = type { %struct._object, i64, i64, %struct.anon.46 }
%struct.anon.46 = type { i16, i16 }

@.str.44 = private unnamed_addr constant [6 x i8] c"ascii\00", align 1
@.str.46 = private unnamed_addr constant [7 x i8] c"latin1\00", align 1
@.str.129 = private unnamed_addr constant [13 x i8] c"legacy ascii\00", align 1
@.str.130 = private unnamed_addr constant [14 x i8] c"legacy latin1\00", align 1
@.str.131 = private unnamed_addr constant [12 x i8] c"legacy UCS2\00", align 1
@.str.132 = private unnamed_addr constant [12 x i8] c"legacy UCS4\00", align 1
@.str.133 = private unnamed_addr constant [22 x i8] c"<legacy invalid kind>\00", align 1
@.str.134 = private unnamed_addr constant [5 x i8] c"UCS2\00", align 1
@.str.135 = private unnamed_addr constant [5 x i8] c"UCS4\00", align 1
@.str.136 = private unnamed_addr constant [23 x i8] c"<invalid compact kind>\00", align 1

; Function Attrs: inlinehint nounwind uwtable
define internal i32 @PyUnicode_IS_ASCII(ptr noundef %0) #2 {
  %2 = alloca ptr, align 8
  store ptr %0, ptr %2, align 8, !tbaa !4
  %3 = load ptr, ptr %2, align 8, !tbaa !4
  %4 = getelementptr inbounds nuw %struct.PyASCIIObject, ptr %3, i32 0, i32 3
  %5 = getelementptr inbounds nuw %struct.anon.46, ptr %4, i32 0, i32 1
  %6 = load i16, ptr %5, align 2
  %7 = lshr i16 %6, 4
  %8 = and i16 %7, 1
  %9 = zext i16 %8 to i32
  ret i32 %9
}

; Function Attrs: inlinehint nounwind uwtable
define internal i32 @PyUnicode_IS_COMPACT(ptr noundef %0) #2 {
  %2 = alloca ptr, align 8
  store ptr %0, ptr %2, align 8, !tbaa !4
  %3 = load ptr, ptr %2, align 8, !tbaa !4
  %4 = getelementptr inbounds nuw %struct.PyASCIIObject, ptr %3, i32 0, i32 3
  %5 = getelementptr inbounds nuw %struct.anon.46, ptr %4, i32 0, i32 1
  %6 = load i16, ptr %5, align 2
  %7 = lshr i16 %6, 3
  %8 = and i16 %7, 1
  %9 = zext i16 %8 to i32
  ret i32 %9
}

; Function Attrs: nounwind uwtable
define internal ptr @unicode_kind_name(ptr noundef %0) #0 {
  %2 = alloca ptr, align 8
  %3 = alloca ptr, align 8
  store ptr %0, ptr %3, align 8, !tbaa !4
  %4 = load ptr, ptr %3, align 8, !tbaa !4
  %5 = call i32 @PyUnicode_IS_COMPACT(ptr noundef %4)
  %6 = icmp ne i32 %5, 0
  br i1 %6, label %23, label %7

7:                                                ; preds = %1
  %8 = load ptr, ptr %3, align 8, !tbaa !4
  %9 = getelementptr inbounds nuw %struct.PyASCIIObject, ptr %8, i32 0, i32 3
  %10 = getelementptr inbounds nuw %struct.anon.46, ptr %9, i32 0, i32 1
  %11 = load i16, ptr %10, align 2
  %12 = and i16 %11, 7
  %13 = zext i16 %12 to i32
  switch i32 %13, label %22 [
    i32 1, label %14
    i32 2, label %20
    i32 4, label %21
  ]

14:                                               ; preds = %7
  %15 = load ptr, ptr %3, align 8, !tbaa !4
  %16 = call i32 @PyUnicode_IS_ASCII(ptr noundef %15)
  %17 = icmp ne i32 %16, 0
  br i1 %17, label %18, label %19

18:                                               ; preds = %14
  store ptr @.str.129, ptr %2, align 8
  br label %39

19:                                               ; preds = %14
  store ptr @.str.130, ptr %2, align 8
  br label %39

20:                                               ; preds = %7
  store ptr @.str.131, ptr %2, align 8
  br label %39

21:                                               ; preds = %7
  store ptr @.str.132, ptr %2, align 8
  br label %39

22:                                               ; preds = %7
  store ptr @.str.133, ptr %2, align 8
  br label %39

23:                                               ; preds = %1
  %24 = load ptr, ptr %3, align 8, !tbaa !4
  %25 = getelementptr inbounds nuw %struct.PyASCIIObject, ptr %24, i32 0, i32 3
  %26 = getelementptr inbounds nuw %struct.anon.46, ptr %25, i32 0, i32 1
  %27 = load i16, ptr %26, align 2
  %28 = and i16 %27, 7
  %29 = zext i16 %28 to i32
  switch i32 %29, label %38 [
    i32 1, label %30
    i32 2, label %36
    i32 4, label %37
  ]

30:                                               ; preds = %23
  %31 = load ptr, ptr %3, align 8, !tbaa !4
  %32 = call i32 @PyUnicode_IS_ASCII(ptr noundef %31)
  %33 = icmp ne i32 %32, 0
  br i1 %33, label %34, label %35

34:                                               ; preds = %30
  store ptr @.str.44, ptr %2, align 8
  br label %39

35:                                               ; preds = %30
  store ptr @.str.46, ptr %2, align 8
  br label %39

36:                                               ; preds = %23
  store ptr @.str.134, ptr %2, align 8
  br label %39

37:                                               ; preds = %23
  store ptr @.str.135, ptr %2, align 8
  br label %39

38:                                               ; preds = %23
  store ptr @.str.136, ptr %2, align 8
  br label %39

39:                                               ; preds = %38, %37, %36, %35, %34, %22, %21, %20, %19, %18
  %40 = load ptr, ptr %2, align 8
  ret ptr %40
}