; Function Attrs: mustprogress nofree norecurse nosync nounwind willreturn memory(none) uwtable
define internal fastcc nonnull ptr @unicode_kind_name(i16 %.34.val) unnamed_addr #7 {
  %1 = and i16 %.34.val, 8
  %.not = icmp eq i16 %1, 0
  %2 = and i16 %.34.val, 7
  br i1 %.not, label %3, label %8

3:                                                ; preds = %0
  switch i16 %2, label %7 [
    i16 1, label %4
    i16 2, label %13
    i16 4, label %6
  ]

4:                                                ; preds = %3
  %5 = and i16 %.34.val, 16
  %.not6 = icmp eq i16 %5, 0
  %.str.130..str.129 = select i1 %.not6, ptr @.str.130, ptr @.str.129
  br label %13

6:                                                ; preds = %3
  br label %13

7:                                                ; preds = %3
  br label %13

8:                                                ; preds = %0
  switch i16 %2, label %12 [
    i16 1, label %9
    i16 2, label %13
    i16 4, label %11
  ]

9:                                                ; preds = %8
  %10 = and i16 %.34.val, 16
  %.not7 = icmp eq i16 %10, 0
  %.str.46..str.44 = select i1 %.not7, ptr @.str.46, ptr @.str.44
  br label %13

11:                                               ; preds = %8
  br label %13

12:                                               ; preds = %8
  br label %13

13:                                               ; preds = %8, %9, %3, %4, %12, %11, %7, %6
  %.0 = phi ptr [ @.str.136, %12 ], [ @.str.135, %11 ], [ @.str.133, %7 ], [ @.str.132, %6 ], [ %.str.130..str.129, %4 ], [ @.str.131, %3 ], [ %.str.46..str.44, %9 ], [ @.str.134, %8 ]
  ret ptr %.0
}